
PwmLedDimming.elf:     file format elf32-avr

Sections:
Idx Name          Size      VMA       LMA       File off  Algn
  0 .text         00000150  00000000  00000000  00000074  2**1
                  CONTENTS, ALLOC, LOAD, READONLY, CODE
  1 .data         00000000  00800060  00800060  000001c4  2**0
                  CONTENTS, ALLOC, LOAD, DATA
  2 .bss          00000001  00800060  00800060  000001c4  2**0
                  ALLOC
  3 .comment      00000030  00000000  00000000  000001c4  2**0
                  CONTENTS, READONLY
  4 .note.gnu.avr.deviceinfo 0000003c  00000000  00000000  000001f4  2**2
                  CONTENTS, READONLY
  5 .debug_aranges 00000040  00000000  00000000  00000230  2**0
                  CONTENTS, READONLY, DEBUGGING
  6 .debug_info   000006f7  00000000  00000000  00000270  2**0
                  CONTENTS, READONLY, DEBUGGING
  7 .debug_abbrev 000005f8  00000000  00000000  00000967  2**0
                  CONTENTS, READONLY, DEBUGGING
  8 .debug_line   000002fe  00000000  00000000  00000f5f  2**0
                  CONTENTS, READONLY, DEBUGGING
  9 .debug_frame  00000084  00000000  00000000  00001260  2**2
                  CONTENTS, READONLY, DEBUGGING
 10 .debug_str    000003b1  00000000  00000000  000012e4  2**0
                  CONTENTS, READONLY, DEBUGGING
 11 .debug_loc    00000108  00000000  00000000  00001695  2**0
                  CONTENTS, READONLY, DEBUGGING
 12 .debug_ranges 00000030  00000000  00000000  0000179d  2**0
                  CONTENTS, READONLY, DEBUGGING

Disassembly of section .text:

00000000 <__vectors>:
   0:	0c 94 2a 00 	jmp	0x54	; 0x54 <__ctors_end>
   4:	0c 94 3c 00 	jmp	0x78	; 0x78 <__bad_interrupt>
   8:	0c 94 3c 00 	jmp	0x78	; 0x78 <__bad_interrupt>
   c:	0c 94 3c 00 	jmp	0x78	; 0x78 <__bad_interrupt>
  10:	0c 94 3c 00 	jmp	0x78	; 0x78 <__bad_interrupt>
  14:	0c 94 3c 00 	jmp	0x78	; 0x78 <__bad_interrupt>
  18:	0c 94 3c 00 	jmp	0x78	; 0x78 <__bad_interrupt>
  1c:	0c 94 3c 00 	jmp	0x78	; 0x78 <__bad_interrupt>
  20:	0c 94 3c 00 	jmp	0x78	; 0x78 <__bad_interrupt>
  24:	0c 94 50 00 	jmp	0xa0	; 0xa0 <__vector_9>
  28:	0c 94 3c 00 	jmp	0x78	; 0x78 <__bad_interrupt>
  2c:	0c 94 3c 00 	jmp	0x78	; 0x78 <__bad_interrupt>
  30:	0c 94 3c 00 	jmp	0x78	; 0x78 <__bad_interrupt>
  34:	0c 94 3c 00 	jmp	0x78	; 0x78 <__bad_interrupt>
  38:	0c 94 3c 00 	jmp	0x78	; 0x78 <__bad_interrupt>
  3c:	0c 94 3c 00 	jmp	0x78	; 0x78 <__bad_interrupt>
  40:	0c 94 3c 00 	jmp	0x78	; 0x78 <__bad_interrupt>
  44:	0c 94 3c 00 	jmp	0x78	; 0x78 <__bad_interrupt>
  48:	0c 94 3c 00 	jmp	0x78	; 0x78 <__bad_interrupt>
  4c:	0c 94 3e 00 	jmp	0x7c	; 0x7c <__vector_19>
  50:	0c 94 3c 00 	jmp	0x78	; 0x78 <__bad_interrupt>

00000054 <__ctors_end>:
  54:	11 24       	eor	r1, r1
  56:	1f be       	out	0x3f, r1	; 63
  58:	cf e5       	ldi	r28, 0x5F	; 95
  5a:	d4 e0       	ldi	r29, 0x04	; 4
  5c:	de bf       	out	0x3e, r29	; 62
  5e:	cd bf       	out	0x3d, r28	; 61

00000060 <__do_clear_bss>:
  60:	20 e0       	ldi	r18, 0x00	; 0
  62:	a0 e6       	ldi	r26, 0x60	; 96
  64:	b0 e0       	ldi	r27, 0x00	; 0
  66:	01 c0       	rjmp	.+2      	; 0x6a <.do_clear_bss_start>

00000068 <.do_clear_bss_loop>:
  68:	1d 92       	st	X+, r1

0000006a <.do_clear_bss_start>:
  6a:	a1 36       	cpi	r26, 0x61	; 97
  6c:	b2 07       	cpc	r27, r18
  6e:	e1 f7       	brne	.-8      	; 0x68 <.do_clear_bss_loop>
  70:	0e 94 75 00 	call	0xea	; 0xea <main>
  74:	0c 94 a6 00 	jmp	0x14c	; 0x14c <_exit>

00000078 <__bad_interrupt>:
  78:	0c 94 00 00 	jmp	0	; 0x0 <__vectors>

0000007c <__vector_19>:
// Variable zur Steuerung des PWM-Werts
volatile uint8_t OCR0Var = 0;

// Timer 0 Compare-Match Interrupt Service Routine
ISR(TIMER0_COMP_vect)
{
  7c:	1f 92       	push	r1
  7e:	0f 92       	push	r0
  80:	0f b6       	in	r0, 0x3f	; 63
  82:	0f 92       	push	r0
  84:	11 24       	eor	r1, r1
  86:	8f 93       	push	r24
	OCR0 = OCR0Var;
  88:	80 91 60 00 	lds	r24, 0x0060	; 0x800060 <__DATA_REGION_ORIGIN__>
  8c:	8c bf       	out	0x3c, r24	; 60
	PORTC |= (1 << PC4); // Schalte den Ausgang für die LED ein
  8e:	85 b3       	in	r24, 0x15	; 21
  90:	80 61       	ori	r24, 0x10	; 16
  92:	85 bb       	out	0x15, r24	; 21
}
  94:	8f 91       	pop	r24
  96:	0f 90       	pop	r0
  98:	0f be       	out	0x3f, r0	; 63
  9a:	0f 90       	pop	r0
  9c:	1f 90       	pop	r1
  9e:	18 95       	reti

000000a0 <__vector_9>:

// Timer 0 Overflow Interrupt Service Routine
ISR(TIMER0_OVF_vect)
{
  a0:	1f 92       	push	r1
  a2:	0f 92       	push	r0
  a4:	0f b6       	in	r0, 0x3f	; 63
  a6:	0f 92       	push	r0
  a8:	11 24       	eor	r1, r1
  aa:	8f 93       	push	r24
	PORTC &= ~(1 << PC4); // Schalte den Ausgang für die LED aus
  ac:	85 b3       	in	r24, 0x15	; 21
  ae:	8f 7e       	andi	r24, 0xEF	; 239
  b0:	85 bb       	out	0x15, r24	; 21
}
  b2:	8f 91       	pop	r24
  b4:	0f 90       	pop	r0
  b6:	0f be       	out	0x3f, r0	; 63
  b8:	0f 90       	pop	r0
  ba:	1f 90       	pop	r1
  bc:	18 95       	reti

000000be <init_Ports>:

// Funktion zur Initialisierung der Ports
void init_Ports()
{
	DDRC = 0xFF; // Setze Port C als Ausgangsport für die LED
  be:	8f ef       	ldi	r24, 0xFF	; 255
  c0:	84 bb       	out	0x14, r24	; 20
	DDRB |= (1 << PB3); // Setze PB3 als Ausgangsport für den PWM-Ausgang
  c2:	87 b3       	in	r24, 0x17	; 23
  c4:	88 60       	ori	r24, 0x08	; 8
  c6:	87 bb       	out	0x17, r24	; 23
	
	DDRA &= ~((1 << PA0)|(1 << PA1)); // Setze PA0 und PA1 als Eingänge
  c8:	8a b3       	in	r24, 0x1a	; 26
  ca:	8c 7f       	andi	r24, 0xFC	; 252
  cc:	8a bb       	out	0x1a, r24	; 26
	PORTA |= ((1 << PA0)|(1 << PA1)); // Aktiviere Pull-Up-Widerstände für PA0 und PA1
  ce:	8b b3       	in	r24, 0x1b	; 27
  d0:	83 60       	ori	r24, 0x03	; 3
  d2:	8b bb       	out	0x1b, r24	; 27
  d4:	08 95       	ret

000000d6 <init_PWM>:
}

// Funktion zur Initialisierung des PWM
void init_PWM()
{
	TCCR0 |= (1 << WGM00)|(1 << WGM01)|(1 << CS00)|(1 << COM01); // Fast-PWM-Modus, Prescaler auf 1, non-inverting PWM
  d6:	83 b7       	in	r24, 0x33	; 51
  d8:	89 66       	ori	r24, 0x69	; 105
  da:	83 bf       	out	0x33, r24	; 51
	
	OCR0 = OCR0Var; // Setze den Anfangswert für den PWM-Duty-Cycle
  dc:	80 91 60 00 	lds	r24, 0x0060	; 0x800060 <__DATA_REGION_ORIGIN__>
  e0:	8c bf       	out	0x3c, r24	; 60
	
	TIMSK |= (1 << TOIE0)|(1 << OCIE0); // Aktiviere Timer 0 Overflow- und Compare-Match-Interrupts
  e2:	89 b7       	in	r24, 0x39	; 57
  e4:	83 60       	ori	r24, 0x03	; 3
  e6:	89 bf       	out	0x39, r24	; 57
  e8:	08 95       	ret

000000ea <main>:
}

int main(void)
{
	cli(); // Deaktiviere Interrupts während der Initialisierung
  ea:	f8 94       	cli
	init_Ports();
  ec:	0e 94 5f 00 	call	0xbe	; 0xbe <init_Ports>
	init_PWM();
  f0:	0e 94 6b 00 	call	0xd6	; 0xd6 <init_PWM>
	sei(); // Aktiviere Interrupts
  f4:	78 94       	sei
	
	while(1)
	{
		if((PINA & (1 << PC0)) == 0) // Überprüfe, ob der Taster an PA0 gedrückt ist
  f6:	c8 99       	sbic	0x19, 0	; 25
  f8:	0c c0       	rjmp	.+24     	; 0x112 <main+0x28>
		{
			OCR0Var += 1; // Erhöhe den PWM-Wert
  fa:	80 91 60 00 	lds	r24, 0x0060	; 0x800060 <__DATA_REGION_ORIGIN__>
  fe:	8f 5f       	subi	r24, 0xFF	; 255
 100:	80 93 60 00 	sts	0x0060, r24	; 0x800060 <__DATA_REGION_ORIGIN__>
	#else
		//round up by default
		__ticks_dc = (uint32_t)(ceil(fabs(__tmp)));
	#endif

	__builtin_avr_delay_cycles(__ticks_dc);
 104:	8f e2       	ldi	r24, 0x2F	; 47
 106:	95 e7       	ldi	r25, 0x75	; 117
 108:	01 97       	sbiw	r24, 0x01	; 1
 10a:	f1 f7       	brne	.-4      	; 0x108 <main+0x1e>
 10c:	00 c0       	rjmp	.+0      	; 0x10e <main+0x24>
 10e:	00 00       	nop
 110:	0d c0       	rjmp	.+26     	; 0x12c <main+0x42>
			_delay_ms(10); // Warte für eine kurze Zeit zur Entprellung
		}
		else if((PINA & (1 << PA1)) == 0) // Überprüfe, ob der Taster an PA1 gedrückt ist
 112:	c9 99       	sbic	0x19, 1	; 25
 114:	0b c0       	rjmp	.+22     	; 0x12c <main+0x42>
		{
			OCR0Var -= 1; // Verringere den PWM-Wert
 116:	80 91 60 00 	lds	r24, 0x0060	; 0x800060 <__DATA_REGION_ORIGIN__>
 11a:	81 50       	subi	r24, 0x01	; 1
 11c:	80 93 60 00 	sts	0x0060, r24	; 0x800060 <__DATA_REGION_ORIGIN__>
 120:	8f e2       	ldi	r24, 0x2F	; 47
 122:	95 e7       	ldi	r25, 0x75	; 117
 124:	01 97       	sbiw	r24, 0x01	; 1
 126:	f1 f7       	brne	.-4      	; 0x124 <main+0x3a>
 128:	00 c0       	rjmp	.+0      	; 0x12a <main+0x40>
 12a:	00 00       	nop
			_delay_ms(10); // Warte für eine kurze Zeit zur Entprellung
		}
		
		if(OCR0Var >= 255) // Begrenze den PWM-Wert auf 253
 12c:	80 91 60 00 	lds	r24, 0x0060	; 0x800060 <__DATA_REGION_ORIGIN__>
 130:	8f 3f       	cpi	r24, 0xFF	; 255
 132:	21 f4       	brne	.+8      	; 0x13c <main+0x52>
		{
			OCR0Var = 253;
 134:	8d ef       	ldi	r24, 0xFD	; 253
 136:	80 93 60 00 	sts	0x0060, r24	; 0x800060 <__DATA_REGION_ORIGIN__>
 13a:	dd cf       	rjmp	.-70     	; 0xf6 <main+0xc>
		}
		else if(OCR0Var == 0) // Stelle sicher, dass der PWM-Wert nicht 0 ist
 13c:	80 91 60 00 	lds	r24, 0x0060	; 0x800060 <__DATA_REGION_ORIGIN__>
 140:	81 11       	cpse	r24, r1
 142:	d9 cf       	rjmp	.-78     	; 0xf6 <main+0xc>
		{
			OCR0Var = 1;
 144:	81 e0       	ldi	r24, 0x01	; 1
 146:	80 93 60 00 	sts	0x0060, r24	; 0x800060 <__DATA_REGION_ORIGIN__>
 14a:	d5 cf       	rjmp	.-86     	; 0xf6 <main+0xc>

0000014c <_exit>:
 14c:	f8 94       	cli

0000014e <__stop_program>:
 14e:	ff cf       	rjmp	.-2      	; 0x14e <__stop_program>
